target datalayout = "e-m:e-p270:32:32-p271:32:32-p272:64:64-i64:64-i128:128-f80:128-n8:16:32:64-S128"
target triple = "x86_64-pc-linux-gnu"

%struct._object = type { i64, ptr }
%"struct.nanobind::detail::nb_inst" = type { %struct._object, i32, i32 }

; Function Attrs: mustprogress nounwind uwtable
define void @_ZN8nanobind6detail25nb_type_restore_ownershipEP7_objectb(ptr noundef %0, i1 noundef zeroext %1) #6 {
  %3 = alloca ptr, align 8
  %4 = alloca i8, align 1
  %5 = alloca ptr, align 8
  store ptr %0, ptr %3, align 8
  %6 = zext i1 %1 to i8
  store i8 %6, ptr %4, align 1
  call void @llvm.lifetime.start.p0(i64 8, ptr %5) #20
  %7 = load ptr, ptr %3, align 8
  store ptr %7, ptr %5, align 8
  %8 = load ptr, ptr %5, align 8
  %9 = getelementptr inbounds nuw %"struct.nanobind::detail::nb_inst", ptr %8, i32 0, i32 2
  %10 = load i32, ptr %9, align 4
  %11 = and i32 %10, 3
  %12 = icmp eq i32 %11, 1
  %13 = xor i1 %12, true
  %14 = zext i1 %13 to i64
  %15 = call i64 @llvm.expect.i64(i64 %14, i64 0)
  %16 = icmp ne i64 %15, 0
  br i1 %16, label %17, label %18

17:                                               ; preds = %2
  call void @_ZN8nanobind6detail16fail_unspecifiedEv() #22
  unreachable

18:                                               ; preds = %2
  %19 = load ptr, ptr %5, align 8
  %20 = getelementptr inbounds nuw %"struct.nanobind::detail::nb_inst", ptr %19, i32 0, i32 2
  %21 = load i32, ptr %20, align 4
  %22 = and i32 %21, -4
  %23 = or i32 %22, 2
  store i32 %23, ptr %20, align 4
  %24 = load i8, ptr %4, align 1, !range !3, !noundef !4
  %25 = trunc i8 %24 to i1
  br i1 %25, label %26, label %37

26:                                               ; preds = %18
  %27 = load ptr, ptr %5, align 8
  %28 = getelementptr inbounds nuw %"struct.nanobind::detail::nb_inst", ptr %27, i32 0, i32 2
  %29 = load i32, ptr %28, align 4
  %30 = and i32 %29, -33
  %31 = or i32 %30, 32
  store i32 %31, ptr %28, align 4
  %32 = load ptr, ptr %5, align 8
  %33 = getelementptr inbounds nuw %"struct.nanobind::detail::nb_inst", ptr %32, i32 0, i32 2
  %34 = load i32, ptr %33, align 4
  %35 = and i32 %34, -17
  %36 = or i32 %35, 16
  store i32 %36, ptr %33, align 4
  br label %37

37:                                               ; preds = %26, %18
  call void @llvm.lifetime.end.p0(i64 8, ptr %5) #20
  ret void
}