; Function Attrs: mustprogress nounwind uwtable
define void @_ZN8nanobind6detail25nb_type_restore_ownershipEP7_objectb(ptr noundef captures(none) %0, i1 noundef zeroext %1) local_unnamed_addr #5 {
  %3 = getelementptr inbounds nuw i8, ptr %0, i64 20
  %4 = load i32, ptr %3, align 4
  %5 = and i32 %4, 3
  %.not = icmp eq i32 %5, 1
  br i1 %.not, label %7, label %6, !prof !3

6:                                                ; preds = %2
  tail call void @_ZN8nanobind6detail16fail_unspecifiedEv() #30
  unreachable

7:                                                ; preds = %2
  %8 = and i32 %4, -4
  %9 = or disjoint i32 %8, 2
  %10 = and i32 %4, -52
  %11 = or disjoint i32 %10, 50
  %storemerge = select i1 %1, i32 %11, i32 %9
  store i32 %storemerge, ptr %3, align 4
  ret void
}